; Function Attrs: mustprogress nofree nounwind willreturn memory(write, argmem: none, inaccessiblemem: readwrite) uwtable
define dso_local noalias noundef ptr @LZ4_createStreamHC() local_unnamed_addr #10 {
  %1 = tail call noalias dereferenceable_or_null(262200) ptr @calloc(i64 noundef 1, i64 noundef 262200) #20
  %2 = icmp eq ptr %1, null
  br i1 %2, label %5, label %3

3:                                                ; preds = %0
  %4 = getelementptr inbounds nuw i8, ptr %1, i64 262180
  store i16 9, ptr %4, align 4, !tbaa !26
  br label %5

5:                                                ; preds = %0, %3
  ret ptr %1
}